target datalayout = "e-m:e-p270:32:32-p271:32:32-p272:64:64-i64:64-i128:128-f80:128-n8:16:32:64-S128"
target triple = "x86_64-pc-linux-gnu"

%struct.nghttp2_nv = type { ptr, ptr, i64, i64, i8 }

; Function Attrs: nounwind uwtable
define internal i64 @encode_length(ptr noundef %0, i64 noundef %1, i64 noundef %2) #0 {
  %4 = alloca i64, align 8
  %5 = alloca ptr, align 8
  %6 = alloca i64, align 8
  %7 = alloca i64, align 8
  %8 = alloca i64, align 8
  %9 = alloca ptr, align 8
  %10 = alloca i32, align 4
  store ptr %0, ptr %5, align 8, !tbaa !85
  store i64 %1, ptr %6, align 8, !tbaa !38
  store i64 %2, ptr %7, align 8, !tbaa !38
  call void @llvm.lifetime.start.p0(i64 8, ptr %8) #6
  %11 = load i64, ptr %7, align 8, !tbaa !38
  %12 = trunc i64 %11 to i32
  %13 = shl i32 1, %12
  %14 = sub nsw i32 %13, 1
  %15 = sext i32 %14 to i64
  store i64 %15, ptr %8, align 8, !tbaa !38
  call void @llvm.lifetime.start.p0(i64 8, ptr %9) #6
  %16 = load ptr, ptr %5, align 8, !tbaa !85
  store ptr %16, ptr %9, align 8, !tbaa !85
  %17 = load ptr, ptr %5, align 8, !tbaa !85
  %18 = load i8, ptr %17, align 1, !tbaa !15
  %19 = zext i8 %18 to i64
  %20 = load i64, ptr %8, align 8, !tbaa !38
  %21 = xor i64 %20, -1
  %22 = and i64 %19, %21
  %23 = trunc i64 %22 to i8
  %24 = load ptr, ptr %5, align 8, !tbaa !85
  store i8 %23, ptr %24, align 1, !tbaa !15
  %25 = load i64, ptr %6, align 8, !tbaa !38
  %26 = load i64, ptr %8, align 8, !tbaa !38
  %27 = icmp ult i64 %25, %26
  br i1 %27, label %28, label %36

28:                                               ; preds = %3
  %29 = load ptr, ptr %5, align 8, !tbaa !85
  %30 = load i8, ptr %29, align 1, !tbaa !15
  %31 = zext i8 %30 to i64
  %32 = load i64, ptr %6, align 8, !tbaa !38
  %33 = or i64 %31, %32
  %34 = trunc i64 %33 to i8
  %35 = load ptr, ptr %5, align 8, !tbaa !85
  store i8 %34, ptr %35, align 1, !tbaa !15
  store i64 1, ptr %4, align 8
  store i32 1, ptr %10, align 4
  br label %72

36:                                               ; preds = %3
  %37 = load ptr, ptr %5, align 8, !tbaa !85
  %38 = load i8, ptr %37, align 1, !tbaa !15
  %39 = zext i8 %38 to i64
  %40 = load i64, ptr %8, align 8, !tbaa !38
  %41 = or i64 %39, %40
  %42 = trunc i64 %41 to i8
  %43 = load ptr, ptr %5, align 8, !tbaa !85
  store i8 %42, ptr %43, align 1, !tbaa !15
  %44 = load ptr, ptr %5, align 8, !tbaa !85
  %45 = getelementptr inbounds nuw i8, ptr %44, i32 1
  store ptr %45, ptr %5, align 8, !tbaa !85
  %46 = load i64, ptr %8, align 8, !tbaa !38
  %47 = load i64, ptr %6, align 8, !tbaa !38
  %48 = sub i64 %47, %46
  store i64 %48, ptr %6, align 8, !tbaa !38
  br label %49

49:                                               ; preds = %59, %36
  %50 = load i64, ptr %6, align 8, !tbaa !38
  %51 = icmp uge i64 %50, 128
  br i1 %51, label %52, label %62

52:                                               ; preds = %49
  %53 = load i64, ptr %6, align 8, !tbaa !38
  %54 = and i64 %53, 127
  %55 = or i64 128, %54
  %56 = trunc i64 %55 to i8
  %57 = load ptr, ptr %5, align 8, !tbaa !85
  %58 = getelementptr inbounds nuw i8, ptr %57, i32 1
  store ptr %58, ptr %5, align 8, !tbaa !85
  store i8 %56, ptr %57, align 1, !tbaa !15
  br label %59

59:                                               ; preds = %52
  %60 = load i64, ptr %6, align 8, !tbaa !38
  %61 = lshr i64 %60, 7
  store i64 %61, ptr %6, align 8, !tbaa !38
  br label %49, !llvm.loop !123

62:                                               ; preds = %49
  %63 = load i64, ptr %6, align 8, !tbaa !38
  %64 = trunc i64 %63 to i8
  %65 = load ptr, ptr %5, align 8, !tbaa !85
  %66 = getelementptr inbounds nuw i8, ptr %65, i32 1
  store ptr %66, ptr %5, align 8, !tbaa !85
  store i8 %64, ptr %65, align 1, !tbaa !15
  %67 = load ptr, ptr %5, align 8, !tbaa !85
  %68 = load ptr, ptr %9, align 8, !tbaa !85
  %69 = ptrtoint ptr %67 to i64
  %70 = ptrtoint ptr %68 to i64
  %71 = sub i64 %69, %70
  store i64 %71, ptr %4, align 8
  store i32 1, ptr %10, align 4
  br label %72

72:                                               ; preds = %62, %28
  call void @llvm.lifetime.end.p0(i64 8, ptr %9) #6
  call void @llvm.lifetime.end.p0(i64 8, ptr %8) #6
  %73 = load i64, ptr %4, align 8
  ret i64 %73
}

; Function Attrs: nounwind uwtable
define internal zeroext i8 @pack_first_byte(i32 noundef %0) #0 {
  %2 = alloca i8, align 1
  %3 = alloca i32, align 4
  store i32 %0, ptr %3, align 4, !tbaa !13
  %4 = load i32, ptr %3, align 4, !tbaa !13
  switch i32 %4, label %8 [
    i32 0, label %5
    i32 1, label %6
    i32 2, label %7
  ]

5:                                                ; preds = %1
  store i8 64, ptr %2, align 1
  br label %10

6:                                                ; preds = %1
  store i8 0, ptr %2, align 1
  br label %10

7:                                                ; preds = %1
  store i8 16, ptr %2, align 1
  br label %10

8:                                                ; preds = %1
  br label %9

9:                                                ; preds = %8
  store i8 0, ptr %2, align 1
  br label %10

10:                                               ; preds = %9, %7, %6, %5
  %11 = load i8, ptr %2, align 1
  ret i8 %11
}

; Function Attrs: nounwind uwtable
define internal i64 @count_encoded_length(i64 noundef %0, i64 noundef %1) #0 {
  %3 = alloca i64, align 8
  %4 = alloca i64, align 8
  %5 = alloca i64, align 8
  %6 = alloca i64, align 8
  %7 = alloca i64, align 8
  %8 = alloca i32, align 4
  store i64 %0, ptr %4, align 8, !tbaa !38
  store i64 %1, ptr %5, align 8, !tbaa !38
  call void @llvm.lifetime.start.p0(i64 8, ptr %6) #6
  %9 = load i64, ptr %5, align 8, !tbaa !38
  %10 = trunc i64 %9 to i32
  %11 = shl i32 1, %10
  %12 = sub nsw i32 %11, 1
  %13 = sext i32 %12 to i64
  store i64 %13, ptr %6, align 8, !tbaa !38
  call void @llvm.lifetime.start.p0(i64 8, ptr %7) #6
  store i64 0, ptr %7, align 8, !tbaa !38
  %14 = load i64, ptr %4, align 8, !tbaa !38
  %15 = load i64, ptr %6, align 8, !tbaa !38
  %16 = icmp ult i64 %14, %15
  br i1 %16, label %17, label %18

17:                                               ; preds = %2
  store i64 1, ptr %3, align 8
  store i32 1, ptr %8, align 4
  br label %36

18:                                               ; preds = %2
  %19 = load i64, ptr %6, align 8, !tbaa !38
  %20 = load i64, ptr %4, align 8, !tbaa !38
  %21 = sub i64 %20, %19
  store i64 %21, ptr %4, align 8, !tbaa !38
  %22 = load i64, ptr %7, align 8, !tbaa !38
  %23 = add i64 %22, 1
  store i64 %23, ptr %7, align 8, !tbaa !38
  br label %24

24:                                               ; preds = %28, %18
  %25 = load i64, ptr %4, align 8, !tbaa !38
  %26 = icmp uge i64 %25, 128
  br i1 %26, label %27, label %33

27:                                               ; preds = %24
  br label %28

28:                                               ; preds = %27
  %29 = load i64, ptr %4, align 8, !tbaa !38
  %30 = lshr i64 %29, 7
  store i64 %30, ptr %4, align 8, !tbaa !38
  %31 = load i64, ptr %7, align 8, !tbaa !38
  %32 = add i64 %31, 1
  store i64 %32, ptr %7, align 8, !tbaa !38
  br label %24, !llvm.loop !122

33:                                               ; preds = %24
  %34 = load i64, ptr %7, align 8, !tbaa !38
  %35 = add i64 %34, 1
  store i64 %35, ptr %3, align 8
  store i32 1, ptr %8, align 4
  br label %36

36:                                               ; preds = %33, %17
  call void @llvm.lifetime.end.p0(i64 8, ptr %7) #6
  call void @llvm.lifetime.end.p0(i64 8, ptr %6) #6
  %37 = load i64, ptr %3, align 8
  ret i64 %37
}

; Function Attrs: nounwind uwtable
define internal i32 @emit_indname_block(ptr noundef %0, i64 noundef %1, ptr noundef %2, i32 noundef %3) #0 {
  %5 = alloca i32, align 4
  %6 = alloca ptr, align 8
  %7 = alloca i64, align 8
  %8 = alloca ptr, align 8
  %9 = alloca i32, align 4
  %10 = alloca i32, align 4
  %11 = alloca ptr, align 8
  %12 = alloca i64, align 8
  %13 = alloca [16 x i8], align 16
  %14 = alloca i64, align 8
  %15 = alloca i32, align 4
  store ptr %0, ptr %6, align 8, !tbaa !9
  store i64 %1, ptr %7, align 8, !tbaa !38
  store ptr %2, ptr %8, align 8, !tbaa !9
  store i32 %3, ptr %9, align 4, !tbaa !13
  call void @llvm.lifetime.start.p0(i64 4, ptr %10) #6
  call void @llvm.lifetime.start.p0(i64 8, ptr %11) #6
  call void @llvm.lifetime.start.p0(i64 8, ptr %12) #6
  call void @llvm.lifetime.start.p0(i64 16, ptr %13) #6
  call void @llvm.lifetime.start.p0(i64 8, ptr %14) #6
  %16 = load i32, ptr %9, align 4, !tbaa !13
  %17 = icmp eq i32 %16, 0
  br i1 %17, label %18, label %19

18:                                               ; preds = %4
  store i64 6, ptr %14, align 8, !tbaa !38
  br label %20

19:                                               ; preds = %4
  store i64 4, ptr %14, align 8, !tbaa !38
  br label %20

20:                                               ; preds = %19, %18
  br label %21

21:                                               ; preds = %20
  br label %22

22:                                               ; preds = %21
  br label %23

23:                                               ; preds = %22
  %24 = load i64, ptr %7, align 8, !tbaa !38
  %25 = add i64 %24, 1
  %26 = load i64, ptr %14, align 8, !tbaa !38
  %27 = call i64 @count_encoded_length(i64 noundef %25, i64 noundef %26)
  store i64 %27, ptr %12, align 8, !tbaa !38
  %28 = load i64, ptr %12, align 8, !tbaa !38
  %29 = icmp ult i64 16, %28
  br i1 %29, label %30, label %31

30:                                               ; preds = %23
  store i32 -523, ptr %5, align 4
  store i32 1, ptr %15, align 4
  br label %63

31:                                               ; preds = %23
  %32 = getelementptr inbounds [16 x i8], ptr %13, i64 0, i64 0
  store ptr %32, ptr %11, align 8, !tbaa !85
  %33 = load i32, ptr %9, align 4, !tbaa !13
  %34 = call zeroext i8 @pack_first_byte(i32 noundef %33)
  %35 = load ptr, ptr %11, align 8, !tbaa !85
  store i8 %34, ptr %35, align 1, !tbaa !15
  %36 = load ptr, ptr %11, align 8, !tbaa !85
  %37 = load i64, ptr %7, align 8, !tbaa !38
  %38 = add i64 %37, 1
  %39 = load i64, ptr %14, align 8, !tbaa !38
  %40 = call i64 @encode_length(ptr noundef %36, i64 noundef %38, i64 noundef %39)
  %41 = load ptr, ptr %6, align 8, !tbaa !9
  %42 = getelementptr inbounds [16 x i8], ptr %13, i64 0, i64 0
  %43 = load i64, ptr %12, align 8, !tbaa !38
  %44 = call i32 @nghttp2_bufs_add(ptr noundef %41, ptr noundef %42, i64 noundef %43)
  store i32 %44, ptr %10, align 4, !tbaa !13
  %45 = load i32, ptr %10, align 4, !tbaa !13
  %46 = icmp ne i32 %45, 0
  br i1 %46, label %47, label %49

47:                                               ; preds = %31
  %48 = load i32, ptr %10, align 4, !tbaa !13
  store i32 %48, ptr %5, align 4
  store i32 1, ptr %15, align 4
  br label %63

49:                                               ; preds = %31
  %50 = load ptr, ptr %6, align 8, !tbaa !9
  %51 = load ptr, ptr %8, align 8, !tbaa !9
  %52 = getelementptr inbounds nuw %struct.nghttp2_nv, ptr %51, i32 0, i32 1
  %53 = load ptr, ptr %52, align 8, !tbaa !96
  %54 = load ptr, ptr %8, align 8, !tbaa !9
  %55 = getelementptr inbounds nuw %struct.nghttp2_nv, ptr %54, i32 0, i32 3
  %56 = load i64, ptr %55, align 8, !tbaa !90
  %57 = call i32 @emit_string(ptr noundef %50, ptr noundef %53, i64 noundef %56)
  store i32 %57, ptr %10, align 4, !tbaa !13
  %58 = load i32, ptr %10, align 4, !tbaa !13
  %59 = icmp ne i32 %58, 0
  br i1 %59, label %60, label %62

60:                                               ; preds = %49
  %61 = load i32, ptr %10, align 4, !tbaa !13
  store i32 %61, ptr %5, align 4
  store i32 1, ptr %15, align 4
  br label %63

62:                                               ; preds = %49
  store i32 0, ptr %5, align 4
  store i32 1, ptr %15, align 4
  br label %63

63:                                               ; preds = %62, %60, %47, %30
  call void @llvm.lifetime.end.p0(i64 8, ptr %14) #6
  call void @llvm.lifetime.end.p0(i64 16, ptr %13) #6
  call void @llvm.lifetime.end.p0(i64 8, ptr %12) #6
  call void @llvm.lifetime.end.p0(i64 8, ptr %11) #6
  call void @llvm.lifetime.end.p0(i64 4, ptr %10) #6
  %64 = load i32, ptr %5, align 4
  ret i32 %64
}