; Function Attrs: nounwind uwtable
define internal fastcc i32 @emit_indname_block(ptr noundef %0, i64 noundef %1, ptr noundef readonly captures(none) %2, i32 noundef %3) unnamed_addr #0 {
  %5 = alloca [16 x i8], align 16
  call void @llvm.lifetime.start.p0(i64 16, ptr nonnull %5) #13
  %6 = icmp eq i32 %3, 0
  %7 = add i64 %1, 1
  %notmask.i = select i1 %6, i32 -64, i32 -16
  %8 = xor i32 %notmask.i, -1
  %9 = zext nneg i32 %8 to i64
  %10 = icmp ult i64 %7, %9
  br i1 %10, label %count_encoded_length.exit.thread.thread, label %15

count_encoded_length.exit.thread.thread:          ; preds = %4
  %switch.selectcmp.i29 = icmp eq i32 %3, 2
  %switch.select.i30 = select i1 %switch.selectcmp.i29, i8 16, i8 0
  %switch.select3.i31 = select i1 %6, i8 64, i8 %switch.select.i30
  %11 = trunc nsw i32 %notmask.i to i8
  %12 = and i8 %switch.select3.i31, %11
  %13 = trunc i64 %7 to i8
  %14 = or i8 %12, %13
  store i8 %14, ptr %5, align 16, !tbaa !12
  br label %encode_length.exit

15:                                               ; preds = %4
  %16 = sub nuw i64 %7, %9
  %17 = icmp ugt i64 %16, 127
  br i1 %17, label %.lr.ph.i, label %.thread

.thread:                                          ; preds = %15
  %switch.selectcmp.i36 = icmp eq i32 %3, 2
  %switch.select.i37 = select i1 %switch.selectcmp.i36, i8 16, i8 0
  %switch.select3.i38 = select i1 %6, i8 64, i8 %switch.select.i37
  %18 = trunc nsw i32 %notmask.i to i8
  %19 = and i8 %switch.select3.i38, %18
  %20 = trunc nuw nsw i32 %8 to i8
  %21 = or i8 %19, %20
  store i8 %21, ptr %5, align 16, !tbaa !12
  %.02428.i41 = getelementptr inbounds nuw i8, ptr %5, i64 1
  br label %._crit_edge.i

.lr.ph.i:                                         ; preds = %15, %.lr.ph.i
  %.016.i = phi i64 [ %23, %.lr.ph.i ], [ 1, %15 ]
  %.01215.i = phi i64 [ %22, %.lr.ph.i ], [ %16, %15 ]
  %22 = lshr i64 %.01215.i, 7
  %23 = add nuw nsw i64 %.016.i, 1
  %24 = icmp ugt i64 %.01215.i, 16383
  br i1 %24, label %.lr.ph.i, label %count_encoded_length.exit, !llvm.loop !79

count_encoded_length.exit:                        ; preds = %.lr.ph.i
  %25 = icmp samesign ugt i64 %.016.i, 14
  br i1 %25, label %44, label %26

26:                                               ; preds = %count_encoded_length.exit
  %27 = add nuw nsw i64 %.016.i, 2
  %switch.selectcmp.i = icmp eq i32 %3, 2
  %switch.select.i = select i1 %switch.selectcmp.i, i8 16, i8 0
  %switch.select3.i = select i1 %6, i8 64, i8 %switch.select.i
  %28 = trunc nsw i32 %notmask.i to i8
  %29 = and i8 %switch.select3.i, %28
  %30 = trunc nuw nsw i32 %8 to i8
  %31 = or i8 %29, %30
  store i8 %31, ptr %5, align 16, !tbaa !12
  %.02428.i = getelementptr inbounds nuw i8, ptr %5, i64 1
  br label %.lr.ph.i25

.lr.ph.i25:                                       ; preds = %26, %.lr.ph.i25
  %.02430.i = phi ptr [ %.024.i, %.lr.ph.i25 ], [ %.02428.i, %26 ]
  %.02529.i = phi i64 [ %34, %.lr.ph.i25 ], [ %16, %26 ]
  %32 = trunc i64 %.02529.i to i8
  %33 = or i8 %32, -128
  store i8 %33, ptr %.02430.i, align 1, !tbaa !12
  %34 = lshr i64 %.02529.i, 7
  %.024.i = getelementptr inbounds nuw i8, ptr %.02430.i, i64 1
  %35 = icmp ugt i64 %.02529.i, 16383
  br i1 %35, label %.lr.ph.i25, label %._crit_edge.i, !llvm.loop !80

._crit_edge.i:                                    ; preds = %.lr.ph.i25, %.thread
  %.011.i273942 = phi i64 [ 2, %.thread ], [ %27, %.lr.ph.i25 ]
  %.025.lcssa.i = phi i64 [ %16, %.thread ], [ %34, %.lr.ph.i25 ]
  %.024.lcssa.i = phi ptr [ %.02428.i41, %.thread ], [ %.024.i, %.lr.ph.i25 ]
  %36 = trunc nuw nsw i64 %.025.lcssa.i to i8
  store i8 %36, ptr %.024.lcssa.i, align 1, !tbaa !12
  br label %encode_length.exit

encode_length.exit:                               ; preds = %count_encoded_length.exit.thread.thread, %._crit_edge.i
  %.011.i2732 = phi i64 [ 1, %count_encoded_length.exit.thread.thread ], [ %.011.i273942, %._crit_edge.i ]
  %37 = call i32 @nghttp2_bufs_add(ptr noundef %0, ptr noundef nonnull %5, i64 noundef %.011.i2732) #13
  %.not = icmp eq i32 %37, 0
  br i1 %.not, label %38, label %44

38:                                               ; preds = %encode_length.exit
  %39 = getelementptr inbounds nuw i8, ptr %2, i64 8
  %40 = load ptr, ptr %39, align 8, !tbaa !90
  %41 = getelementptr inbounds nuw i8, ptr %2, i64 24
  %42 = load i64, ptr %41, align 8, !tbaa !87
  %43 = call fastcc i32 @emit_string(ptr noundef %0, ptr noundef %40, i64 noundef %42)
  br label %44

44:                                               ; preds = %38, %encode_length.exit, %count_encoded_length.exit
  %.018 = phi i32 [ -523, %count_encoded_length.exit ], [ %37, %encode_length.exit ], [ %43, %38 ]
  call void @llvm.lifetime.end.p0(i64 16, ptr nonnull %5) #13
  ret i32 %.018
}